target datalayout = "e-m:e-p270:32:32-p271:32:32-p272:64:64-i64:64-i128:128-f80:128-n8:16:32:64-S128"
target triple = "x86_64-pc-linux-gnu"

%struct.event_signal_map = type { ptr, i32 }
%struct.event_base = type { ptr, ptr, %struct.event_changelist, ptr, %struct.evsig_info, i32, i32, i32, i32, i32, i32, i32, i32, i32, i32, i32, i32, ptr, i32, %struct.evcallback_list, ptr, i32, i32, %struct.event_signal_map, %struct.event_signal_map, %struct.min_heap, %struct.timeval, %struct.evutil_monotonic_timer, %struct.timeval, i64, i64, ptr, ptr, i32, ptr, i32, %struct.timeval, i32, i32, i32, [2 x i32], %struct.event, ptr, %struct.evutil_weakrand_state, %struct.once_event_list, [2 x %struct.evwatch_list] }
%struct.event_changelist = type { ptr, i32, i32 }
%struct.evsig_info = type { %struct.event, [2 x i32], i32, i32, [65 x ptr], ptr, i32 }
%struct.evcallback_list = type { ptr, ptr }
%struct.min_heap = type { ptr, i64, i64 }
%struct.evutil_monotonic_timer = type { i32, %struct.timeval, %struct.timeval }
%struct.timeval = type { i64, i64 }
%struct.event = type { %struct.event_callback, %union.anon.0, i32, i16, i16, ptr, %union.anon.2, %struct.timeval }
%struct.event_callback = type { %struct.anon, i16, i8, i8, %union.anon, ptr }
%struct.anon = type { ptr, ptr }
%union.anon = type { ptr }
%union.anon.0 = type { %struct.anon.1 }
%struct.anon.1 = type { ptr, ptr }
%union.anon.2 = type { %struct.anon.3 }
%struct.anon.3 = type { %struct.anon.4, %struct.timeval }
%struct.anon.4 = type { ptr, ptr }
%struct.evutil_weakrand_state = type { i32 }
%struct.once_event_list = type { ptr }
%struct.evwatch_list = type { ptr, ptr }
%struct.eventop = type { ptr, ptr, ptr, ptr, ptr, ptr, i32, i32, i64 }
%struct.event_dlist = type { ptr }
%struct.evmap_signal = type { %struct.event_dlist }
%struct.anon.5 = type { %struct.anon.6, i16, ptr }
%struct.anon.6 = type { ptr, ptr }

; Function Attrs: nounwind uwtable
define hidden i32 @evmap_signal_del_(ptr noundef %0, i32 noundef %1, ptr noundef %2) #0 {
  %4 = alloca i32, align 4
  %5 = alloca ptr, align 8
  %6 = alloca i32, align 4
  %7 = alloca ptr, align 8
  %8 = alloca ptr, align 8
  %9 = alloca ptr, align 8
  %10 = alloca ptr, align 8
  %11 = alloca i32, align 4
  store ptr %0, ptr %5, align 8
  store i32 %1, ptr %6, align 4
  store ptr %2, ptr %7, align 8
  call void @llvm.lifetime.start.p0(i64 8, ptr %8) #6
  %12 = load ptr, ptr %5, align 8
  %13 = getelementptr inbounds nuw %struct.event_base, ptr %12, i32 0, i32 3
  %14 = load ptr, ptr %13, align 8
  store ptr %14, ptr %8, align 8
  call void @llvm.lifetime.start.p0(i64 8, ptr %9) #6
  %15 = load ptr, ptr %5, align 8
  %16 = getelementptr inbounds nuw %struct.event_base, ptr %15, i32 0, i32 24
  store ptr %16, ptr %9, align 8
  call void @llvm.lifetime.start.p0(i64 8, ptr %10) #6
  %17 = load i32, ptr %6, align 4
  %18 = icmp slt i32 %17, 0
  br i1 %18, label %25, label %19

19:                                               ; preds = %3
  %20 = load i32, ptr %6, align 4
  %21 = load ptr, ptr %9, align 8
  %22 = getelementptr inbounds nuw %struct.event_signal_map, ptr %21, i32 0, i32 1
  %23 = load i32, ptr %22, align 8
  %24 = icmp sge i32 %20, %23
  br i1 %24, label %25, label %26

25:                                               ; preds = %19, %3
  store i32 -1, ptr %4, align 4
  store i32 1, ptr %11, align 4
  br label %86

26:                                               ; preds = %19
  %27 = load ptr, ptr %9, align 8
  %28 = getelementptr inbounds nuw %struct.event_signal_map, ptr %27, i32 0, i32 0
  %29 = load ptr, ptr %28, align 8
  %30 = load i32, ptr %6, align 4
  %31 = sext i32 %30 to i64
  %32 = getelementptr inbounds ptr, ptr %29, i64 %31
  %33 = load ptr, ptr %32, align 8
  store ptr %33, ptr %10, align 8
  br label %34

34:                                               ; preds = %26
  %35 = load ptr, ptr %7, align 8
  %36 = getelementptr inbounds nuw %struct.event, ptr %35, i32 0, i32 6
  %37 = getelementptr inbounds nuw %struct.anon.5, ptr %36, i32 0, i32 0
  %38 = getelementptr inbounds nuw %struct.anon.6, ptr %37, i32 0, i32 0
  %39 = load ptr, ptr %38, align 8
  %40 = icmp ne ptr %39, null
  br i1 %40, label %41, label %55

41:                                               ; preds = %34
  %42 = load ptr, ptr %7, align 8
  %43 = getelementptr inbounds nuw %struct.event, ptr %42, i32 0, i32 6
  %44 = getelementptr inbounds nuw %struct.anon.5, ptr %43, i32 0, i32 0
  %45 = getelementptr inbounds nuw %struct.anon.6, ptr %44, i32 0, i32 1
  %46 = load ptr, ptr %45, align 8
  %47 = load ptr, ptr %7, align 8
  %48 = getelementptr inbounds nuw %struct.event, ptr %47, i32 0, i32 6
  %49 = getelementptr inbounds nuw %struct.anon.5, ptr %48, i32 0, i32 0
  %50 = getelementptr inbounds nuw %struct.anon.6, ptr %49, i32 0, i32 0
  %51 = load ptr, ptr %50, align 8
  %52 = getelementptr inbounds nuw %struct.event, ptr %51, i32 0, i32 6
  %53 = getelementptr inbounds nuw %struct.anon.5, ptr %52, i32 0, i32 0
  %54 = getelementptr inbounds nuw %struct.anon.6, ptr %53, i32 0, i32 1
  store ptr %46, ptr %54, align 8
  br label %55

55:                                               ; preds = %41, %34
  %56 = load ptr, ptr %7, align 8
  %57 = getelementptr inbounds nuw %struct.event, ptr %56, i32 0, i32 6
  %58 = getelementptr inbounds nuw %struct.anon.5, ptr %57, i32 0, i32 0
  %59 = getelementptr inbounds nuw %struct.anon.6, ptr %58, i32 0, i32 0
  %60 = load ptr, ptr %59, align 8
  %61 = load ptr, ptr %7, align 8
  %62 = getelementptr inbounds nuw %struct.event, ptr %61, i32 0, i32 6
  %63 = getelementptr inbounds nuw %struct.anon.5, ptr %62, i32 0, i32 0
  %64 = getelementptr inbounds nuw %struct.anon.6, ptr %63, i32 0, i32 1
  %65 = load ptr, ptr %64, align 8
  store ptr %60, ptr %65, align 8
  br label %66

66:                                               ; preds = %55
  br label %67

67:                                               ; preds = %66
  %68 = load ptr, ptr %10, align 8
  %69 = getelementptr inbounds nuw %struct.evmap_signal, ptr %68, i32 0, i32 0
  %70 = getelementptr inbounds nuw %struct.event_dlist, ptr %69, i32 0, i32 0
  %71 = load ptr, ptr %70, align 8
  %72 = icmp eq ptr %71, null
  br i1 %72, label %73, label %85

73:                                               ; preds = %67
  %74 = load ptr, ptr %8, align 8
  %75 = getelementptr inbounds nuw %struct.eventop, ptr %74, i32 0, i32 3
  %76 = load ptr, ptr %75, align 8
  %77 = load ptr, ptr %5, align 8
  %78 = load ptr, ptr %7, align 8
  %79 = getelementptr inbounds nuw %struct.event, ptr %78, i32 0, i32 2
  %80 = load i32, ptr %79, align 8
  %81 = call i32 %76(ptr noundef %77, i32 noundef %80, i16 noundef signext 0, i16 noundef signext 8, ptr noundef null)
  %82 = icmp eq i32 %81, -1
  br i1 %82, label %83, label %84

83:                                               ; preds = %73
  store i32 -1, ptr %4, align 4
  store i32 1, ptr %11, align 4
  br label %86

84:                                               ; preds = %73
  br label %85

85:                                               ; preds = %84, %67
  store i32 1, ptr %4, align 4
  store i32 1, ptr %11, align 4
  br label %86

86:                                               ; preds = %85, %83, %25
  call void @llvm.lifetime.end.p0(i64 8, ptr %10) #6
  call void @llvm.lifetime.end.p0(i64 8, ptr %9) #6
  call void @llvm.lifetime.end.p0(i64 8, ptr %8) #6
  %87 = load i32, ptr %4, align 4
  ret i32 %87
}