; Function Attrs: nounwind uwtable
define hidden range(i32 -1, 2) i32 @evmap_signal_del_(ptr noundef %0, i32 noundef %1, ptr noundef readonly captures(none) %2) local_unnamed_addr #1 {
  %4 = getelementptr inbounds nuw i8, ptr %0, i64 32
  %5 = load ptr, ptr %4, align 8
  %6 = getelementptr inbounds nuw i8, ptr %0, i64 824
  %7 = icmp slt i32 %1, 0
  br i1 %7, label %31, label %8

8:                                                ; preds = %3
  %9 = getelementptr inbounds nuw i8, ptr %0, i64 832
  %10 = load i32, ptr %9, align 8
  %.not = icmp slt i32 %1, %10
  br i1 %.not, label %11, label %31

11:                                               ; preds = %8
  %12 = load ptr, ptr %6, align 8
  %13 = zext nneg i32 %1 to i64
  %14 = getelementptr inbounds nuw ptr, ptr %12, i64 %13
  %15 = load ptr, ptr %14, align 8
  %16 = getelementptr inbounds nuw i8, ptr %2, i64 72
  %17 = load ptr, ptr %16, align 8
  %.not18 = icmp eq ptr %17, null
  %.phi.trans.insert = getelementptr inbounds nuw i8, ptr %2, i64 80
  %.pre19 = load ptr, ptr %.phi.trans.insert, align 8
  br i1 %.not18, label %._crit_edge, label %18

18:                                               ; preds = %11
  %19 = getelementptr inbounds nuw i8, ptr %17, i64 80
  store ptr %.pre19, ptr %19, align 8
  %.pre = load ptr, ptr %16, align 8
  br label %._crit_edge

._crit_edge:                                      ; preds = %11, %18
  %20 = phi ptr [ %.pre, %18 ], [ null, %11 ]
  store ptr %20, ptr %.pre19, align 8
  %21 = load ptr, ptr %15, align 8
  %22 = icmp eq ptr %21, null
  br i1 %22, label %23, label %30

23:                                               ; preds = %._crit_edge
  %24 = getelementptr inbounds nuw i8, ptr %5, i64 24
  %25 = load ptr, ptr %24, align 8
  %26 = getelementptr inbounds nuw i8, ptr %2, i64 56
  %27 = load i32, ptr %26, align 8
  %28 = tail call i32 %25(ptr noundef nonnull %0, i32 noundef %27, i16 noundef signext 0, i16 noundef signext 8, ptr noundef null) #7
  %29 = icmp eq i32 %28, -1
  br i1 %29, label %31, label %30

30:                                               ; preds = %23, %._crit_edge
  br label %31

31:                                               ; preds = %23, %3, %8, %30
  %.0 = phi i32 [ 1, %30 ], [ -1, %8 ], [ -1, %3 ], [ -1, %23 ]
  ret i32 %.0
}